target datalayout = "e-m:e-p270:32:32-p271:32:32-p272:64:64-i64:64-i128:128-f80:128-n8:16:32:64-S128"
target triple = "x86_64-pc-linux-gnu"

%struct.gen_ivtbl = type { %union.anon.1 }
%union.anon.1 = type { %struct.anon.2 }
%struct.anon.2 = type { i32, [1 x i64] }
%struct.anon.3 = type { ptr }

; Function Attrs: nounwind sspstrong uwtable
define internal i64 @gen_ivtbl_bytes(i64 noundef %0) #0 {
  %2 = alloca i64, align 8
  store i64 %0, ptr %2, align 8, !tbaa !14
  %3 = load i64, ptr %2, align 8, !tbaa !14
  %4 = mul i64 %3, 8
  %5 = add i64 8, %4
  ret i64 %5
}

; Function Attrs: nounwind sspstrong uwtable
define hidden i64 @rb_generic_ivar_memsize(i64 noundef %0) #0 {
  %2 = alloca i64, align 8
  %3 = alloca i64, align 8
  %4 = alloca ptr, align 8
  %5 = alloca i32, align 4
  store i64 %0, ptr %3, align 8, !tbaa !14
  call void @llvm.lifetime.start.p0(i64 8, ptr %4) #30
  %6 = load i64, ptr %3, align 8, !tbaa !14
  %7 = call i32 @rb_gen_ivtbl_get(i64 noundef %6, i64 noundef 0, ptr noundef %4)
  %8 = icmp ne i32 %7, 0
  br i1 %8, label %9, label %26

9:                                                ; preds = %1
  %10 = load i64, ptr %3, align 8, !tbaa !14
  %11 = call zeroext i1 @rb_shape_obj_too_complex(i64 noundef %10)
  br i1 %11, label %12, label %19

12:                                               ; preds = %9
  %13 = load ptr, ptr %4, align 8, !tbaa !96
  %14 = getelementptr inbounds nuw %struct.gen_ivtbl, ptr %13, i32 0, i32 0
  %15 = getelementptr inbounds nuw %struct.anon.3, ptr %14, i32 0, i32 0
  %16 = load ptr, ptr %15, align 8, !tbaa !36
  %17 = call i64 @rb_st_memsize(ptr noundef %16) #29
  %18 = add i64 16, %17
  store i64 %18, ptr %2, align 8
  store i32 1, ptr %5, align 4
  br label %27

19:                                               ; preds = %9
  %20 = load ptr, ptr %4, align 8, !tbaa !96
  %21 = getelementptr inbounds nuw %struct.gen_ivtbl, ptr %20, i32 0, i32 0
  %22 = getelementptr inbounds nuw %struct.anon.2, ptr %21, i32 0, i32 0
  %23 = load i32, ptr %22, align 8, !tbaa !36
  %24 = zext i32 %23 to i64
  %25 = call i64 @gen_ivtbl_bytes(i64 noundef %24)
  store i64 %25, ptr %2, align 8
  store i32 1, ptr %5, align 4
  br label %27

26:                                               ; preds = %1
  store i64 0, ptr %2, align 8
  store i32 1, ptr %5, align 4
  br label %27

27:                                               ; preds = %26, %19, %12
  call void @llvm.lifetime.end.p0(i64 8, ptr %4) #30
  %28 = load i64, ptr %2, align 8
  ret i64 %28
}