; Function Attrs: nounwind sspstrong uwtable
define hidden i64 @rb_generic_ivar_memsize(i64 noundef %0) local_unnamed_addr #0 {
  %2 = alloca ptr, align 8
  call void @llvm.lifetime.start.p0(i64 8, ptr nonnull %2) #27
  %3 = call i32 @rb_gen_ivtbl_get(i64 noundef %0, i64 noundef 0, ptr noundef nonnull %2)
  %.not = icmp eq i32 %3, 0
  br i1 %.not, label %16, label %4

4:                                                ; preds = %1
  %5 = tail call zeroext i1 @rb_shape_obj_too_complex(i64 noundef %0) #27
  %6 = load ptr, ptr %2, align 8, !tbaa !94
  br i1 %5, label %7, label %11

7:                                                ; preds = %4
  %8 = load ptr, ptr %6, align 8, !tbaa !32
  %9 = tail call i64 @rb_st_memsize(ptr noundef %8) #29
  %10 = add i64 %9, 16
  br label %16

11:                                               ; preds = %4
  %12 = load i32, ptr %6, align 8, !tbaa !32
  %13 = zext i32 %12 to i64
  %14 = shl nuw nsw i64 %13, 3
  %15 = add nuw nsw i64 %14, 8
  br label %16

16:                                               ; preds = %1, %11, %7
  %.0 = phi i64 [ %10, %7 ], [ %15, %11 ], [ 0, %1 ]
  call void @llvm.lifetime.end.p0(i64 8, ptr nonnull %2) #27
  ret i64 %.0
}